target datalayout = "e-m:e-p270:32:32-p271:32:32-p272:64:64-i64:64-i128:128-f80:128-n8:16:32:64-S128"
target triple = "x86_64-pc-linux-gnu"

%struct.CnvExtData = type { %struct.NewConverter, ptr, ptr, ptr, ptr, ptr, ptr, [1088 x i16], [64448 x i16], [262144 x i16], [65536 x i32], i32, i32, i32, i32, i16, i32, i32, i32, i32, i32, i32 }
%struct.NewConverter = type { ptr, ptr, ptr, ptr }

@.str = private unnamed_addr constant [15 x i8] c"out of memory\0A\00", align 1

; Function Attrs: nounwind uwtable
define dso_local ptr @CnvExtOpen(ptr noundef %0) #0 {
  %2 = alloca ptr, align 8
  %3 = alloca ptr, align 8
  store ptr %0, ptr %2, align 8, !tbaa !4
  call void @llvm.lifetime.start.p0(i64 8, ptr %3) #9
  %4 = call noalias ptr @uprv_malloc_77(i64 noundef 917632) #10
  store ptr %4, ptr %3, align 8, !tbaa !9
  %5 = load ptr, ptr %3, align 8, !tbaa !9
  %6 = icmp eq ptr %5, null
  br i1 %6, label %7, label %9

7:                                                ; preds = %1
  %8 = call i32 (ptr, ...) @printf(ptr noundef @.str)
  call void @exit(i32 noundef 7) #11
  unreachable

9:                                                ; preds = %1
  %10 = load ptr, ptr %3, align 8, !tbaa !9
  call void @llvm.memset.p0.i64(ptr align 8 %10, i8 0, i64 917632, i1 false)
  %11 = load ptr, ptr %2, align 8, !tbaa !4
  %12 = load ptr, ptr %3, align 8, !tbaa !9
  %13 = getelementptr inbounds nuw %struct.CnvExtData, ptr %12, i32 0, i32 1
  store ptr %11, ptr %13, align 8, !tbaa !11
  %14 = load ptr, ptr %3, align 8, !tbaa !9
  %15 = getelementptr inbounds nuw %struct.CnvExtData, ptr %14, i32 0, i32 0
  %16 = getelementptr inbounds nuw %struct.NewConverter, ptr %15, i32 0, i32 0
  store ptr @CnvExtClose, ptr %16, align 8, !tbaa !17
  %17 = load ptr, ptr %3, align 8, !tbaa !9
  %18 = getelementptr inbounds nuw %struct.CnvExtData, ptr %17, i32 0, i32 0
  %19 = getelementptr inbounds nuw %struct.NewConverter, ptr %18, i32 0, i32 1
  store ptr @CnvExtIsValid, ptr %19, align 8, !tbaa !18
  %20 = load ptr, ptr %3, align 8, !tbaa !9
  %21 = getelementptr inbounds nuw %struct.CnvExtData, ptr %20, i32 0, i32 0
  %22 = getelementptr inbounds nuw %struct.NewConverter, ptr %21, i32 0, i32 2
  store ptr @CnvExtAddTable, ptr %22, align 8, !tbaa !19
  %23 = load ptr, ptr %3, align 8, !tbaa !9
  %24 = getelementptr inbounds nuw %struct.CnvExtData, ptr %23, i32 0, i32 0
  %25 = getelementptr inbounds nuw %struct.NewConverter, ptr %24, i32 0, i32 3
  store ptr @CnvExtWrite, ptr %25, align 8, !tbaa !20
  %26 = load ptr, ptr %3, align 8, !tbaa !9
  %27 = getelementptr inbounds nuw %struct.CnvExtData, ptr %26, i32 0, i32 0
  call void @llvm.lifetime.end.p0(i64 8, ptr %3) #9
  ret ptr %27
}