; Function Attrs: nounwind uwtable
define dso_local noalias nonnull ptr @CnvExtOpen(ptr noundef %0) local_unnamed_addr #0 {
  %2 = tail call noalias dereferenceable_or_null(917632) ptr @uprv_malloc_77(i64 noundef 917632) #13
  %3 = icmp eq ptr %2, null
  br i1 %3, label %4, label %5

4:                                                ; preds = %1
  %puts = tail call i32 @puts(ptr nonnull dereferenceable(1) @str)
  tail call void @exit(i32 noundef 7) #14
  unreachable

5:                                                ; preds = %1
  %6 = getelementptr inbounds nuw i8, ptr %2, i64 40
  tail call void @llvm.memset.p0.i64(ptr noundef nonnull align 8 dereferenceable(917592) %6, i8 0, i64 917592, i1 false)
  %7 = getelementptr inbounds nuw i8, ptr %2, i64 32
  store ptr %0, ptr %7, align 8, !tbaa !4
  store ptr @CnvExtClose, ptr %2, align 8, !tbaa !14
  %8 = getelementptr inbounds nuw i8, ptr %2, i64 8
  store ptr @CnvExtIsValid, ptr %8, align 8, !tbaa !15
  %9 = getelementptr inbounds nuw i8, ptr %2, i64 16
  store ptr @CnvExtAddTable, ptr %9, align 8, !tbaa !16
  %10 = getelementptr inbounds nuw i8, ptr %2, i64 24
  store ptr @CnvExtWrite, ptr %10, align 8, !tbaa !17
  ret ptr %2
}